target datalayout = "e-m:e-p270:32:32-p271:32:32-p272:64:64-i64:64-i128:128-f80:128-n8:16:32:64-S128"
target triple = "x86_64-pc-linux-gnu"

%"class.duckdb::ByteStreamSplitDecoder" = type { ptr, ptr, %"class.duckdb::unique_ptr" }
%"class.duckdb::unique_ptr" = type { %"class.std::unique_ptr" }
%"class.std::unique_ptr" = type { %"struct.std::__uniq_ptr_data" }
%"struct.std::__uniq_ptr_data" = type { %"class.std::__uniq_ptr_impl" }
%"class.std::__uniq_ptr_impl" = type { %"class.std::tuple" }
%"class.std::tuple" = type { %"struct.std::_Tuple_impl" }
%"struct.std::_Tuple_impl" = type { %"struct.std::_Head_base.1" }
%"struct.std::_Head_base.1" = type { ptr }
%"class.duckdb::ColumnReader" = type { ptr, ptr, ptr, i64, i8, ptr, ptr, i64, i64, i64, %"class.duckdb::shared_ptr", %"class.duckdb::ResizeableBuffer", i32, %"class.duckdb::unique_ptr.2", %"class.duckdb::unique_ptr.2", %"class.duckdb::DictionaryDecoder", %"class.duckdb::DeltaBinaryPackedDecoder", %"class.duckdb::RLEDecoder", %"class.duckdb::DeltaLengthByteArrayDecoder", %"class.duckdb::DeltaByteArrayDecoder", %"class.duckdb::ByteStreamSplitDecoder", [2 x %"class.duckdb::ResizeableBuffer"] }
%"class.duckdb::shared_ptr" = type { %"class.std::shared_ptr" }
%"class.std::shared_ptr" = type { %"class.std::__shared_ptr" }
%"class.std::__shared_ptr" = type { ptr, %"class.std::__shared_count" }
%"class.std::__shared_count" = type { ptr }
%"class.duckdb::ResizeableBuffer" = type { %"class.duckdb::ByteBuffer", %"class.duckdb::AllocatedData", i64 }
%"class.duckdb::ByteBuffer" = type { ptr, i64 }
%"class.duckdb::AllocatedData" = type { %"class.duckdb::optional_ptr", ptr, i64 }
%"class.duckdb::optional_ptr" = type { ptr }
%"class.duckdb::unique_ptr.2" = type { %"class.std::unique_ptr.3" }
%"class.std::unique_ptr.3" = type { %"struct.std::__uniq_ptr_data.4" }
%"struct.std::__uniq_ptr_data.4" = type { %"class.std::__uniq_ptr_impl.5" }
%"class.std::__uniq_ptr_impl.5" = type { %"class.std::tuple.6" }
%"class.std::tuple.6" = type { %"struct.std::_Tuple_impl.7" }
%"struct.std::_Tuple_impl.7" = type { %"struct.std::_Head_base.10" }
%"struct.std::_Head_base.10" = type { ptr }
%"class.duckdb::DictionaryDecoder" = type { ptr, ptr, %"class.duckdb::unique_ptr.2", %"struct.duckdb::SelectionVector", %"struct.duckdb::SelectionVector", i64, %"class.duckdb::unique_ptr.15", %"class.duckdb::unique_ptr.24", i64, i8, %"class.std::__cxx11::basic_string" }
%"struct.duckdb::SelectionVector" = type { ptr, %"class.duckdb::shared_ptr.11" }
%"class.duckdb::shared_ptr.11" = type { %"class.std::shared_ptr.12" }
%"class.std::shared_ptr.12" = type { %"class.std::__shared_ptr.13" }
%"class.std::__shared_ptr.13" = type { ptr, %"class.std::__shared_count" }
%"class.duckdb::unique_ptr.15" = type { %"class.std::unique_ptr.16" }
%"class.std::unique_ptr.16" = type { %"struct.std::__uniq_ptr_data.17" }
%"struct.std::__uniq_ptr_data.17" = type { %"class.std::__uniq_ptr_impl.18" }
%"class.std::__uniq_ptr_impl.18" = type { %"class.std::tuple.19" }
%"class.std::tuple.19" = type { %"struct.std::_Tuple_impl.20" }
%"struct.std::_Tuple_impl.20" = type { %"struct.std::_Head_base.23" }
%"struct.std::_Head_base.23" = type { ptr }
%"class.duckdb::unique_ptr.24" = type { %"class.std::unique_ptr.25" }
%"class.std::unique_ptr.25" = type { %"struct.std::__uniq_ptr_data.26" }
%"struct.std::__uniq_ptr_data.26" = type { %"class.std::__uniq_ptr_impl.27" }
%"class.std::__uniq_ptr_impl.27" = type { %"class.std::tuple.28" }
%"class.std::tuple.28" = type { %"struct.std::_Tuple_impl.29" }
%"struct.std::_Tuple_impl.29" = type { %"struct.std::_Head_base.32" }
%"struct.std::_Head_base.32" = type { ptr }
%"class.std::__cxx11::basic_string" = type { %"struct.std::__cxx11::basic_string<char>::_Alloc_hider", i64, %union.anon }
%"struct.std::__cxx11::basic_string<char>::_Alloc_hider" = type { ptr }
%union.anon = type { i64, [8 x i8] }
%"class.duckdb::DeltaBinaryPackedDecoder" = type { ptr, ptr, %"class.duckdb::unique_ptr.33" }
%"class.duckdb::unique_ptr.33" = type { %"class.std::unique_ptr.34" }
%"class.std::unique_ptr.34" = type { %"struct.std::__uniq_ptr_data.35" }
%"struct.std::__uniq_ptr_data.35" = type { %"class.std::__uniq_ptr_impl.36" }
%"class.std::__uniq_ptr_impl.36" = type { %"class.std::tuple.37" }
%"class.std::tuple.37" = type { %"struct.std::_Tuple_impl.38" }
%"struct.std::_Tuple_impl.38" = type { %"struct.std::_Head_base.41" }
%"struct.std::_Head_base.41" = type { ptr }
%"class.duckdb::RLEDecoder" = type { ptr, ptr, %"class.duckdb::unique_ptr.2" }
%"class.duckdb::DeltaLengthByteArrayDecoder" = type { ptr, ptr, i64, i64 }
%"class.duckdb::DeltaByteArrayDecoder" = type { ptr, %"class.duckdb::unique_ptr.15", i64, i64 }
%"class.duckdb::optional_idx" = type { i64 }
%"struct.duckdb::ParquetColumnSchema" = type { i32, %"class.std::__cxx11::basic_string", %"struct.duckdb::LogicalType", i64, i64, i64, i64, %"class.duckdb::optional_idx", i32, i32, i32, i32, %"class.duckdb::vector.160" }
%"struct.duckdb::LogicalType" = type { i8, i8, %"class.duckdb::shared_ptr.156" }
%"class.duckdb::shared_ptr.156" = type { %"class.std::shared_ptr.157" }
%"class.std::shared_ptr.157" = type { %"class.std::__shared_ptr.158" }
%"class.std::__shared_ptr.158" = type { ptr, %"class.std::__shared_count" }
%"class.duckdb::vector.160" = type { %"class.std::vector.161" }
%"class.std::vector.161" = type { %"struct.std::_Vector_base.162" }
%"struct.std::_Vector_base.162" = type { %"struct.std::_Vector_base<duckdb::ParquetColumnSchema, std::allocator<duckdb::ParquetColumnSchema>>::_Vector_impl" }
%"struct.std::_Vector_base<duckdb::ParquetColumnSchema, std::allocator<duckdb::ParquetColumnSchema>>::_Vector_impl" = type { %"struct.std::_Vector_base<duckdb::ParquetColumnSchema, std::allocator<duckdb::ParquetColumnSchema>>::_Vector_impl_data" }
%"struct.std::_Vector_base<duckdb::ParquetColumnSchema, std::allocator<duckdb::ParquetColumnSchema>>::_Vector_impl_data" = type { ptr, ptr, ptr }

; Function Attrs: mustprogress nounwind uwtable
define linkonce_odr noundef i32 @_ZN6duckdb17UnsafeNumericCastIjmvEET_T0_(i64 noundef %0) #4 comdat {
  %2 = alloca i64, align 8
  store i64 %0, ptr %2, align 8, !tbaa !30
  %3 = load i64, ptr %2, align 8, !tbaa !30
  %4 = trunc i64 %3 to i32
  ret i32 %4
}

; Function Attrs: inlinehint mustprogress nounwind uwtable
define linkonce_odr noundef i64 @_ZNK6duckdb12ColumnReader9MaxDefineEv(ptr noundef nonnull align 8 dereferenceable(544) %0) #5 comdat align 2 {
  %2 = alloca ptr, align 8
  store ptr %0, ptr %2, align 8, !tbaa !8
  %3 = load ptr, ptr %2, align 8
  %4 = getelementptr inbounds nuw %"class.duckdb::ColumnReader", ptr %3, i32 0, i32 1
  %5 = load ptr, ptr %4, align 8, !tbaa !222
  %6 = getelementptr inbounds nuw %"struct.duckdb::ParquetColumnSchema", ptr %5, i32 0, i32 3
  %7 = load i64, ptr %6, align 8, !tbaa !277
  ret i64 %7
}

; Function Attrs: inlinehint mustprogress uwtable
define linkonce_odr void @_ZN6duckdb15SelectionVector9set_indexEmm(ptr noundef nonnull align 8 dereferenceable(24) %0, i64 noundef %1, i64 noundef %2) #8 comdat align 2 {
  %4 = alloca ptr, align 8
  %5 = alloca i64, align 8
  %6 = alloca i64, align 8
  store ptr %0, ptr %4, align 8, !tbaa !308
  store i64 %1, ptr %5, align 8, !tbaa !30
  store i64 %2, ptr %6, align 8, !tbaa !30
  %7 = load ptr, ptr %4, align 8
  %8 = load i64, ptr %6, align 8, !tbaa !30
  %9 = call noundef i32 @_ZN6duckdb17UnsafeNumericCastIjmvEET_T0_(i64 noundef %8)
  %10 = getelementptr inbounds nuw %"struct.duckdb::SelectionVector", ptr %7, i32 0, i32 0
  %11 = load ptr, ptr %10, align 8, !tbaa !336
  %12 = load i64, ptr %5, align 8, !tbaa !30
  %13 = getelementptr inbounds nuw i32, ptr %11, i64 %12
  store i32 %9, ptr %13, align 4, !tbaa !223
  ret void
}

; Function Attrs: mustprogress uwtable
define noundef i64 @_ZN6duckdb17DictionaryDecoder14GetValidValuesEPhmm(ptr noundef nonnull align 8 dereferenceable(144) %0, ptr noundef %1, i64 noundef %2, i64 noundef %3) #6 align 2 {
  %5 = alloca ptr, align 8
  %6 = alloca ptr, align 8
  %7 = alloca i64, align 8
  %8 = alloca i64, align 8
  %9 = alloca i64, align 8
  %10 = alloca i64, align 8
  store ptr %0, ptr %5, align 8, !tbaa !303
  store ptr %1, ptr %6, align 8, !tbaa !35
  store i64 %2, ptr %7, align 8, !tbaa !30
  store i64 %3, ptr %8, align 8, !tbaa !30
  %11 = load ptr, ptr %5, align 8
  call void @llvm.lifetime.start.p0(i64 8, ptr %9) #3
  %12 = load i64, ptr %7, align 8, !tbaa !30
  store i64 %12, ptr %9, align 8, !tbaa !30
  %13 = load ptr, ptr %6, align 8, !tbaa !35
  %14 = icmp ne ptr %13, null
  br i1 %14, label %15, label %47

15:                                               ; preds = %4
  store i64 0, ptr %9, align 8, !tbaa !30
  call void @llvm.lifetime.start.p0(i64 8, ptr %10) #3
  store i64 0, ptr %10, align 8, !tbaa !30
  br label %16

16:                                               ; preds = %43, %15
  %17 = load i64, ptr %10, align 8, !tbaa !30
  %18 = load i64, ptr %7, align 8, !tbaa !30
  %19 = icmp ult i64 %17, %18
  br i1 %19, label %21, label %20

20:                                               ; preds = %16
  call void @llvm.lifetime.end.p0(i64 8, ptr %10) #3
  br label %46

21:                                               ; preds = %16
  %22 = getelementptr inbounds nuw %"class.duckdb::DictionaryDecoder", ptr %11, i32 0, i32 3
  %23 = load i64, ptr %9, align 8, !tbaa !30
  %24 = load i64, ptr %10, align 8, !tbaa !30
  call void @_ZN6duckdb15SelectionVector9set_indexEmm(ptr noundef nonnull align 8 dereferenceable(24) %22, i64 noundef %23, i64 noundef %24)
  %25 = getelementptr inbounds nuw %"class.duckdb::DictionaryDecoder", ptr %11, i32 0, i32 4
  %26 = load i64, ptr %10, align 8, !tbaa !30
  %27 = getelementptr inbounds nuw %"class.duckdb::DictionaryDecoder", ptr %11, i32 0, i32 5
  %28 = load i64, ptr %27, align 8, !tbaa !305
  call void @_ZN6duckdb15SelectionVector9set_indexEmm(ptr noundef nonnull align 8 dereferenceable(24) %25, i64 noundef %26, i64 noundef %28)
  %29 = load ptr, ptr %6, align 8, !tbaa !35
  %30 = load i64, ptr %8, align 8, !tbaa !30
  %31 = load i64, ptr %10, align 8, !tbaa !30
  %32 = add i64 %30, %31
  %33 = getelementptr inbounds nuw i8, ptr %29, i64 %32
  %34 = load i8, ptr %33, align 1, !tbaa !218
  %35 = zext i8 %34 to i64
  %36 = getelementptr inbounds nuw %"class.duckdb::DictionaryDecoder", ptr %11, i32 0, i32 0
  %37 = load ptr, ptr %36, align 8, !tbaa !322
  %38 = call noundef i64 @_ZNK6duckdb12ColumnReader9MaxDefineEv(ptr noundef nonnull align 8 dereferenceable(544) %37)
  %39 = icmp eq i64 %35, %38
  %40 = zext i1 %39 to i64
  %41 = load i64, ptr %9, align 8, !tbaa !30
  %42 = add i64 %41, %40
  store i64 %42, ptr %9, align 8, !tbaa !30
  br label %43

43:                                               ; preds = %21
  %44 = load i64, ptr %10, align 8, !tbaa !30
  %45 = add i64 %44, 1
  store i64 %45, ptr %10, align 8, !tbaa !30
  br label %16, !llvm.loop !340

46:                                               ; preds = %20
  br label %47

47:                                               ; preds = %46, %4
  %48 = load i64, ptr %9, align 8, !tbaa !30
  call void @llvm.lifetime.end.p0(i64 8, ptr %9) #3
  ret i64 %48
}