; Function Attrs: mustprogress nofree norecurse nosync nounwind memory(readwrite, inaccessiblemem: none) uwtable
define noundef i64 @_ZN6duckdb17DictionaryDecoder14GetValidValuesEPhmm(ptr noundef nonnull readonly align 8 captures(none) dereferenceable(144) %0, ptr noundef readonly captures(address_is_null) %1, i64 noundef %2, i64 noundef %3) local_unnamed_addr #9 align 2 {
  %.not = icmp eq ptr %1, null
  br i1 %.not, label %.loopexit, label %.preheader

.preheader:                                       ; preds = %4
  %.not17 = icmp eq i64 %2, 0
  br i1 %.not17, label %.loopexit, label %.lr.ph

.lr.ph:                                           ; preds = %.preheader
  %5 = getelementptr inbounds nuw i8, ptr %0, i64 24
  %6 = load ptr, ptr %5, align 8, !tbaa !341
  %7 = getelementptr inbounds nuw i8, ptr %0, i64 48
  %8 = getelementptr inbounds nuw i8, ptr %0, i64 72
  %9 = load i64, ptr %8, align 8, !tbaa !307
  %10 = trunc i64 %9 to i32
  %11 = load ptr, ptr %7, align 8, !tbaa !341
  %12 = getelementptr i8, ptr %1, i64 %3
  %13 = load ptr, ptr %0, align 8, !tbaa !311
  %14 = getelementptr inbounds nuw i8, ptr %13, i64 8
  %15 = load ptr, ptr %14, align 8, !tbaa !43
  %16 = getelementptr inbounds nuw i8, ptr %15, i64 64
  %17 = load i64, ptr %16, align 8, !tbaa !100
  br label %18

18:                                               ; preds = %.lr.ph, %18
  %.016 = phi i64 [ 0, %.lr.ph ], [ %28, %18 ]
  %.115 = phi i64 [ 0, %.lr.ph ], [ %27, %18 ]
  %19 = trunc i64 %.016 to i32
  %20 = getelementptr inbounds nuw i32, ptr %6, i64 %.115
  store i32 %19, ptr %20, align 4, !tbaa !278
  %21 = getelementptr inbounds nuw i32, ptr %11, i64 %.016
  store i32 %10, ptr %21, align 4, !tbaa !278
  %22 = getelementptr i8, ptr %12, i64 %.016
  %23 = load i8, ptr %22, align 1, !tbaa !118
  %24 = zext i8 %23 to i64
  %25 = icmp eq i64 %17, %24
  %26 = zext i1 %25 to i64
  %27 = add i64 %.115, %26
  %28 = add nuw i64 %.016, 1
  %exitcond.not = icmp eq i64 %28, %2
  br i1 %exitcond.not, label %.loopexit, label %18, !llvm.loop !353

.loopexit:                                        ; preds = %18, %.preheader, %4
  %.013 = phi i64 [ %2, %4 ], [ 0, %.preheader ], [ %27, %18 ]
  ret i64 %.013
}